(lp0
(F27.68200796497864
F85.31991004943848
tp1
a(F27.67919568940439
F85.32068252563477
tp2
a(F27.6793097019846
F85.32235622406006
tp3
a(F27.688240317628097
F85.3160047531128
tp4
a(F27.68759429759769
F27.68759429759769
tp5
a(F23.0
F4.0
tp6
a(F4.0
F4.0
tp7
a(F27.33
F85.333
tp8
a(F23.0
F3.0
tp9
a(F27.684248500000002
F85.31824729999994
tp10
a(F27.684248500000002
F85.31824729999994
tp11
a(F27.689890328185363
F85.30356783841853
tp12
a(F27.6839712
F85.31832740000004
tp13
a(F27.679275800001882
F85.3168715951324
tp14
a(F27.688903590076194
F85.30773772392422
tp15
a.